#include <math.h>
#include <stdio.h>
#include <stdlib.h>
#include <string.h>

main()
{
	int x1,y1,x2,y2,a[100][100],b[100][100],c[100][100],i,j,q;
	c[0][0]=0;
	scanf("%d %d",&x1,&y1);
	for(i=0;i<x1;i++)
	{
		for(j=0;j<y1;j++)
		{
			scanf("%d",&a[i][j]);
		}
	}
	scanf("%d %d",&x2,&y2);
	for(i=0;i<x2;i++)
	{
		for(j=0;j<y2;j++)
		{
			scanf("%d",&b[i][j]);
		}
	}
	for(i=0;i<x1;i++)
	{
		for(j=0;j<y2;j++)
		{
			for(q=0;q<y1;q++)
			{
				c[i][j]=c[i][j]+a[i][q]*b[q][j];
			}
		}
	}
	for(i=0;i<x1;i++)
	{
		for(j=0;j<y2-1;j++)
		{
			printf("%d ",c[i][j]);
		}
		printf("%d\n",c[i][y2-1]);
	}
	return 0;
}
